target datalayout = "e-m:e-p270:32:32-p271:32:32-p272:64:64-i64:64-i128:128-f80:128-n8:16:32:64-S128"
target triple = "x86_64-unknown-linux-gnu"

%"class.icu_75::LanguageBreakEngine" = type { %"class.icu_75::UObject" }
%"class.icu_75::UObject" = type { ptr }
%"class.icu_75::LocalPointer.1" = type { %"class.icu_75::LocalPointerBase.2" }
%"class.icu_75::LocalPointerBase.2" = type { ptr }
%"class.icu_75::BreakEngineWrapper" = type { %"class.icu_75::LanguageBreakEngine", %"class.icu_75::LocalPointer.1" }

; Function Attrs: mustprogress nounwind uwtable
define linkonce_odr noundef ptr @_ZNK6icu_7516LocalPointerBaseINS_19ExternalBreakEngineEEptEv(ptr noundef nonnull align 8 dereferenceable(8) %this) #0 comdat align 2 {
entry:
  %this.addr = alloca ptr, align 8
  store ptr %this, ptr %this.addr, align 8
  %this1 = load ptr, ptr %this.addr, align 8
  %ptr = getelementptr inbounds %"class.icu_75::LocalPointerBase.2", ptr %this1, i32 0, i32 0
  %0 = load ptr, ptr %ptr, align 8
  ret ptr %0
}

; Function Attrs: mustprogress uwtable
define noundef signext i8 @_ZNK6icu_7518BreakEngineWrapper7handlesEiPKc(ptr noundef nonnull align 8 dereferenceable(16) %this, i32 noundef %c, ptr noundef %locale) unnamed_addr #1 align 2 {
entry:
  %this.addr = alloca ptr, align 8
  %c.addr = alloca i32, align 4
  %locale.addr = alloca ptr, align 8
  store ptr %this, ptr %this.addr, align 8
  store i32 %c, ptr %c.addr, align 4
  store ptr %locale, ptr %locale.addr, align 8
  %this1 = load ptr, ptr %this.addr, align 8
  %delegate = getelementptr inbounds %"class.icu_75::BreakEngineWrapper", ptr %this1, i32 0, i32 1
  %call = call noundef ptr @_ZNK6icu_7516LocalPointerBaseINS_19ExternalBreakEngineEEptEv(ptr noundef nonnull align 8 dereferenceable(8) %delegate)
  %0 = load i32, ptr %c.addr, align 4
  %1 = load ptr, ptr %locale.addr, align 8
  %vtable = load ptr, ptr %call, align 8
  %vfn = getelementptr inbounds ptr, ptr %vtable, i64 3
  %2 = load ptr, ptr %vfn, align 8
  %call2 = call noundef zeroext i1 %2(ptr noundef nonnull align 8 dereferenceable(8) %call, i32 noundef %0, ptr noundef %1)
  %conv = zext i1 %call2 to i8
  ret i8 %conv
}