; Function Attrs: mustprogress uwtable
define noundef signext i8 @_ZNK6icu_7518BreakEngineWrapper7handlesEiPKc(ptr nocapture noundef nonnull readonly align 8 dereferenceable(16) %this, i32 noundef %c, ptr noundef %locale) unnamed_addr #1 align 2 {
entry:
  %delegate = getelementptr inbounds i8, ptr %this, i64 8
  %0 = load ptr, ptr %delegate, align 8
  %vtable = load ptr, ptr %0, align 8
  %vfn = getelementptr inbounds i8, ptr %vtable, i64 24
  %1 = load ptr, ptr %vfn, align 8
  %call2 = tail call noundef zeroext i1 %1(ptr noundef nonnull align 8 dereferenceable(8) %0, i32 noundef %c, ptr noundef %locale)
  %conv = zext i1 %call2 to i8
  ret i8 %conv
}